; Function Attrs: nounwind uwtable
define internal i32 @PicklerMemoProxy_traverse(ptr noundef readonly captures(none) %0, ptr noundef readonly captures(none) %1, ptr noundef %2) #0 {
  %4 = getelementptr i8, ptr %0, i64 8
  %.val22 = load ptr, ptr %4, align 8, !tbaa !50
  %.not = icmp eq ptr %.val22, null
  br i1 %.not, label %7, label %5

5:                                                ; preds = %3
  %6 = tail call i32 %1(ptr noundef nonnull %.val22, ptr noundef %2) #13
  %.not17.not = icmp eq i32 %6, 0
  br i1 %.not17.not, label %7, label %13

7:                                                ; preds = %5, %3
  %8 = getelementptr inbounds nuw i8, ptr %0, i64 16
  %9 = load ptr, ptr %8, align 8, !tbaa !192
  %.not18 = icmp eq ptr %9, null
  br i1 %.not18, label %12, label %10

10:                                               ; preds = %7
  %11 = tail call i32 %1(ptr noundef nonnull %9, ptr noundef %2) #13
  %.not19.not = icmp eq i32 %11, 0
  br i1 %.not19.not, label %12, label %13

12:                                               ; preds = %10, %7
  br label %13

13:                                               ; preds = %10, %5, %12
  %.1 = phi i32 [ %6, %5 ], [ %11, %10 ], [ 0, %12 ]
  ret i32 %.1
}